; ModuleID = '40/99.c'
source_filename = "40/99.c"
target datalayout = "e-m:e-p270:32:32-p271:32:32-p272:64:64-i64:64-f80:128-n8:16:32:64-S128"
target triple = "x86_64-pc-linux-gnu"

@.str = private unnamed_addr constant [20 x i8] c"%lf\0A%lf\0A%lf\0A%lf\0A%lf\00", align 1
@.str.1 = private unnamed_addr constant [6 x i8] c"%.4lf\00", align 1
@.str.2 = private unnamed_addr constant [14 x i8] c"Invalid input\00", align 1

; Function Attrs: noinline nounwind uwtable
define dso_local i32 @main() #0 {
  %1 = alloca i32, align 4
  %2 = alloca double, align 8
  %3 = alloca double, align 8
  %4 = alloca double, align 8
  %5 = alloca double, align 8
  %6 = alloca double, align 8
  %7 = alloca double, align 8
  store i32 0, i32* %1, align 4
  %8 = call i32 (i8*, ...) @__isoc99_scanf(i8* getelementptr inbounds ([20 x i8], [20 x i8]* @.str, i64 0, i64 0), double* %2, double* %3, double* %4, double* %5, double* %6)
  %9 = load double, double* %6, align 8
  %10 = fdiv double %9, 1.800000e+02
  %11 = fmul double %10, 0x400921FB4D12D84A
  store double %11, double* %6, align 8
  %12 = load double, double* %2, align 8
  %13 = load double, double* %3, align 8
  %14 = fadd double %12, %13
  %15 = load double, double* %4, align 8
  %16 = fadd double %14, %15
  %17 = load double, double* %5, align 8
  %18 = fadd double %16, %17
  %19 = fdiv double %18, 2.000000e+00
  store double %19, double* %7, align 8
  %20 = load double, double* %7, align 8
  %21 = load double, double* %2, align 8
  %22 = fsub double %20, %21
  %23 = load double, double* %7, align 8
  %24 = load double, double* %3, align 8
  %25 = fsub double %23, %24
  %26 = fmul double %22, %25
  %27 = load double, double* %7, align 8
  %28 = load double, double* %4, align 8
  %29 = fsub double %27, %28
  %30 = fmul double %26, %29
  %31 = load double, double* %7, align 8
  %32 = load double, double* %5, align 8
  %33 = fsub double %31, %32
  %34 = fmul double %30, %33
  %35 = load double, double* %2, align 8
  %36 = load double, double* %3, align 8
  %37 = fmul double %35, %36
  %38 = load double, double* %4, align 8
  %39 = fmul double %37, %38
  %40 = load double, double* %5, align 8
  %41 = fmul double %39, %40
  %42 = load double, double* %6, align 8
  %43 = fdiv double %42, 2.000000e+00
  %44 = call double @cos(double %43) #3
  %45 = fmul double %41, %44
  %46 = load double, double* %6, align 8
  %47 = fdiv double %46, 2.000000e+00
  %48 = call double @cos(double %47) #3
  %49 = fmul double %45, %48
  %50 = fsub double %34, %49
  %51 = fcmp oge double %50, 0.000000e+00
  br i1 %51, label %52, label %86

52:                                               ; preds = %0
  %53 = load double, double* %7, align 8
  %54 = load double, double* %2, align 8
  %55 = fsub double %53, %54
  %56 = load double, double* %7, align 8
  %57 = load double, double* %3, align 8
  %58 = fsub double %56, %57
  %59 = fmul double %55, %58
  %60 = load double, double* %7, align 8
  %61 = load double, double* %4, align 8
  %62 = fsub double %60, %61
  %63 = fmul double %59, %62
  %64 = load double, double* %7, align 8
  %65 = load double, double* %5, align 8
  %66 = fsub double %64, %65
  %67 = fmul double %63, %66
  %68 = load double, double* %2, align 8
  %69 = load double, double* %3, align 8
  %70 = fmul double %68, %69
  %71 = load double, double* %4, align 8
  %72 = fmul double %70, %71
  %73 = load double, double* %5, align 8
  %74 = fmul double %72, %73
  %75 = load double, double* %6, align 8
  %76 = fdiv double %75, 2.000000e+00
  %77 = call double @cos(double %76) #3
  %78 = fmul double %74, %77
  %79 = load double, double* %6, align 8
  %80 = fdiv double %79, 2.000000e+00
  %81 = call double @cos(double %80) #3
  %82 = fmul double %78, %81
  %83 = fsub double %67, %82
  %84 = call double @sqrt(double %83) #3
  %85 = call i32 (i8*, ...) @printf(i8* getelementptr inbounds ([6 x i8], [6 x i8]* @.str.1, i64 0, i64 0), double %84)
  br label %88

86:                                               ; preds = %0
  %87 = call i32 (i8*, ...) @printf(i8* getelementptr inbounds ([14 x i8], [14 x i8]* @.str.2, i64 0, i64 0))
  br label %88

88:                                               ; preds = %86, %52
  ret i32 0
}

declare dso_local i32 @__isoc99_scanf(i8*, ...) #1

; Function Attrs: nounwind
declare dso_local double @cos(double) #2

declare dso_local i32 @printf(i8*, ...) #1

; Function Attrs: nounwind
declare dso_local double @sqrt(double) #2


!llvm.module.flags = !{!0}
!llvm.ident = !{!1}

!0 = !{i32 1, !"wchar_size", i32 4}
!1 = !{!"clang version 10.0.0-4ubuntu1 "}
